Certificate:
    Data:
        Version: 3 (0x2)
        Serial Number: 1 (0x1)
        Signature Algorithm: sha256WithRSAEncryption
        Issuer: C=JP, ST=Chiba, L=Chiba City, O=ORE CA, CN=ore.ca.com
        Validity
            Not Before: Dec 22 02:32:36 2024 GMT
            Not After : Mar 27 02:32:36 2027 GMT
        Subject: C=JP, ST=Chiba, O=ORE CA, CN=wb01.local
        Subject Public Key Info:
            Public Key Algorithm: rsaEncryption
                Public-Key: (2048 bit)
                Modulus:
                    00:ae:d9:3a:7f:94:45:1f:83:63:52:59:a0:31:1f:
                    cd:1e:82:c7:a9:a0:3e:bc:3b:00:b1:9c:83:ef:c4:
                    ec:74:28:39:2e:48:10:e1:38:98:44:d8:95:dc:a2:
                    e1:91:78:1a:95:a5:dc:71:d3:6d:4a:12:14:76:05:
                    9e:15:aa:cc:0b:80:5d:58:0c:2e:13:31:44:a6:9d:
                    53:bf:01:17:34:56:eb:51:33:f0:d2:84:94:34:67:
                    cf:29:6d:44:7d:8e:0b:b0:a9:e8:20:13:84:46:e1:
                    f1:96:e2:d4:47:22:9a:ef:3d:43:c8:0d:1a:ac:56:
                    4d:3a:2f:e1:c0:3a:5f:7a:d6:e9:c6:7f:08:61:26:
                    f5:f2:78:9f:0b:c7:50:9d:a0:57:b3:6f:a4:0c:71:
                    cb:7c:02:02:a3:b1:e7:de:c8:7f:1c:7c:8e:1e:07:
                    76:fc:06:6b:79:aa:86:ef:c5:73:d9:95:1a:4a:15:
                    2c:39:25:85:6c:b8:02:e3:d2:d1:c3:5d:50:2d:9e:
                    4e:17:b3:f0:1d:02:00:70:30:8f:85:8b:4c:ad:13:
                    c9:49:6a:94:06:5e:80:7c:74:e1:bb:06:43:f4:c1:
                    39:07:f6:0f:85:56:7f:5e:9f:87:d5:c5:58:5f:cf:
                    e5:80:99:1c:83:e6:72:70:5b:0a:5a:52:6a:5d:2e:
                    d4:a9
                Exponent: 65537 (0x10001)
        X509v3 extensions:
            X509v3 Basic Constraints: 
                CA:FALSE
            X509v3 Subject Key Identifier: 
                C4:E4:B3:4C:BA:B8:69:62:BC:2C:5E:E0:9E:B6:7A:E4:4E:96:6D:A8
            X509v3 Authority Key Identifier: 
                DirName:/C=JP/ST=Chiba/L=Chiba City/O=ORE CA/CN=ore.ca.com
                serial:27:81:A8:76:39:F1:72:54:FD:22:4F:04:A2:18:8D:84:4B:52:AB:2D
    Signature Algorithm: sha256WithRSAEncryption
    Signature Value:
        48:28:4b:a4:a5:65:cd:42:49:7b:c2:a5:76:d5:f9:7c:b8:bb:
        6d:8f:5c:36:08:b2:d8:7e:a2:43:49:91:49:bb:a8:4c:16:0c:
        31:91:54:b7:d6:2a:87:a5:62:ac:04:35:ea:32:94:27:c2:8f:
        1b:1b:0b:0f:79:9f:09:08:3e:d2:6f:31:25:4c:92:26:87:71:
        2b:d2:70:78:20:2f:ee:a3:07:01:09:2e:d3:80:52:5c:4c:8b:
        76:91:96:ee:fd:35:93:18:c7:54:64:f9:e6:1b:ee:24:08:f4:
        82:d5:be:05:aa:f9:10:b9:69:aa:ea:e0:c6:64:c8:9d:84:22:
        96:79:2c:5d:ea:fd:1b:97:28:3e:30:2c:fb:d5:8a:e6:c2:aa:
        01:90:99:a2:75:a2:a6:70:8d:70:07:b6:76:7c:f0:81:7c:90:
        46:9f:96:a8:ad:20:44:78:7b:bf:39:fc:a3:b5:fc:a8:80:f7:
        8b:7e:75:35:01:36:26:63:e8:e4:e0:0a:ed:7b:f0:29:6b:49:
        af:ae:d5:c7:3d:b4:6c:d8:11:d9:f4:a4:87:e2:92:d0:3a:a6:
        f2:52:c4:0a:da:03:fc:a2:12:96:8f:34:8f:6f:e6:30:46:72:
        c8:3f:5f:a7:ed:7d:a2:57:55:5a:1c:43:f1:4b:71:61:43:39:
        67:10:43:38
-----BEGIN CERTIFICATE-----
MIIDwzCCAqugAwIBAgIBATANBgkqhkiG9w0BAQsFADBYMQswCQYDVQQGEwJKUDEO
MAwGA1UECAwFQ2hpYmExEzARBgNVBAcMCkNoaWJhIENpdHkxDzANBgNVBAoMBk9S
RSBDQTETMBEGA1UEAwwKb3JlLmNhLmNvbTAeFw0yNDEyMjIwMjMyMzZaFw0yNzAz
MjcwMjMyMzZaMEMxCzAJBgNVBAYTAkpQMQ4wDAYDVQQIDAVDaGliYTEPMA0GA1UE
CgwGT1JFIENBMRMwEQYDVQQDDAp3YjAxLmxvY2FsMIIBIjANBgkqhkiG9w0BAQEF
AAOCAQ8AMIIBCgKCAQEArtk6f5RFH4NjUlmgMR/NHoLHqaA+vDsAsZyD78TsdCg5
LkgQ4TiYRNiV3KLhkXgalaXccdNtShIUdgWeFarMC4BdWAwuEzFEpp1TvwEXNFbr
UTPw0oSUNGfPKW1EfY4LsKnoIBOERuHxluLURyKa7z1DyA0arFZNOi/hwDpfetbp
xn8IYSb18nifC8dQnaBXs2+kDHHLfAICo7Hn3sh/HHyOHgd2/AZreaqG78Vz2ZUa
ShUsOSWFbLgC49LRw11QLZ5OF7PwHQIAcDCPhYtMrRPJSWqUBl6AfHThuwZD9ME5
B/YPhVZ/Xp+H1cVYX8/lgJkcg+ZycFsKWlJqXS7UqQIDAQABo4GsMIGpMAkGA1Ud
EwQCMAAwHQYDVR0OBBYEFMTks0y6uGlivCxe4J62euROlm2oMH0GA1UdIwR2MHSh
XKRaMFgxCzAJBgNVBAYTAkpQMQ4wDAYDVQQIDAVDaGliYTETMBEGA1UEBwwKQ2hp
YmEgQ2l0eTEPMA0GA1UECgwGT1JFIENBMRMwEQYDVQQDDApvcmUuY2EuY29tghQn
gah2OfFyVP0iTwSiGI2ES1KrLTANBgkqhkiG9w0BAQsFAAOCAQEASChLpKVlzUJJ
e8KldtX5fLi7bY9cNgiy2H6iQ0mRSbuoTBYMMZFUt9Yqh6VirAQ16jKUJ8KPGxsL
D3mfCQg+0m8xJUySJodxK9JweCAv7qMHAQku04BSXEyLdpGW7v01kxjHVGT55hvu
JAj0gtW+Bar5ELlpqurgxmTInYQilnksXer9G5coPjAs+9WK5sKqAZCZonWipnCN
cAe2dnzwgXyQRp+WqK0gRHh7vzn8o7X8qID3i351NQE2JmPo5OAK7XvwKWtJr67V
xz20bNgR2fSkh+KS0Dqm8lLECtoD/KISlo80j2/mMEZyyD9fp+19oldVWhxD8Utx
YUM5ZxBDOA==
-----END CERTIFICATE-----
