Certificate:
    Data:
        Version: 3 (0x2)
        Serial Number: 0 (0x0)
        Signature Algorithm: sha256WithRSAEncryption
        Issuer: C=JP, ST=Chiba, L=Chiba City, O=ORE CA, CN=ore.ca.com
        Validity
            Not Before: Dec 21 07:15:49 2024 GMT
            Not After : Mar 26 07:15:49 2027 GMT
        Subject: C=JP, ST=Chiba, O=ORE CA, CN=myserv.com
        Subject Public Key Info:
            Public Key Algorithm: rsaEncryption
                Public-Key: (2048 bit)
                Modulus:
                    00:ae:d9:3a:7f:94:45:1f:83:63:52:59:a0:31:1f:
                    cd:1e:82:c7:a9:a0:3e:bc:3b:00:b1:9c:83:ef:c4:
                    ec:74:28:39:2e:48:10:e1:38:98:44:d8:95:dc:a2:
                    e1:91:78:1a:95:a5:dc:71:d3:6d:4a:12:14:76:05:
                    9e:15:aa:cc:0b:80:5d:58:0c:2e:13:31:44:a6:9d:
                    53:bf:01:17:34:56:eb:51:33:f0:d2:84:94:34:67:
                    cf:29:6d:44:7d:8e:0b:b0:a9:e8:20:13:84:46:e1:
                    f1:96:e2:d4:47:22:9a:ef:3d:43:c8:0d:1a:ac:56:
                    4d:3a:2f:e1:c0:3a:5f:7a:d6:e9:c6:7f:08:61:26:
                    f5:f2:78:9f:0b:c7:50:9d:a0:57:b3:6f:a4:0c:71:
                    cb:7c:02:02:a3:b1:e7:de:c8:7f:1c:7c:8e:1e:07:
                    76:fc:06:6b:79:aa:86:ef:c5:73:d9:95:1a:4a:15:
                    2c:39:25:85:6c:b8:02:e3:d2:d1:c3:5d:50:2d:9e:
                    4e:17:b3:f0:1d:02:00:70:30:8f:85:8b:4c:ad:13:
                    c9:49:6a:94:06:5e:80:7c:74:e1:bb:06:43:f4:c1:
                    39:07:f6:0f:85:56:7f:5e:9f:87:d5:c5:58:5f:cf:
                    e5:80:99:1c:83:e6:72:70:5b:0a:5a:52:6a:5d:2e:
                    d4:a9
                Exponent: 65537 (0x10001)
        X509v3 extensions:
            X509v3 Basic Constraints: 
                CA:FALSE
            X509v3 Subject Key Identifier: 
                C4:E4:B3:4C:BA:B8:69:62:BC:2C:5E:E0:9E:B6:7A:E4:4E:96:6D:A8
            X509v3 Authority Key Identifier: 
                DirName:/C=JP/ST=Chiba/L=Chiba City/O=ORE CA/CN=ore.ca.com
                serial:27:81:A8:76:39:F1:72:54:FD:22:4F:04:A2:18:8D:84:4B:52:AB:2D
    Signature Algorithm: sha256WithRSAEncryption
    Signature Value:
        77:be:42:09:4d:f9:28:bc:a2:e0:27:62:bf:a1:e7:7d:f9:d7:
        4f:32:78:63:f8:a5:5b:c3:b4:44:e3:e3:35:b9:a5:bb:31:48:
        67:37:ef:62:52:31:64:91:0b:b8:58:88:54:7b:b1:4a:d5:28:
        cf:17:a7:e0:b0:27:98:d2:94:79:fa:5e:c6:8f:36:d0:44:33:
        7e:70:03:71:b4:9f:47:4e:7b:c7:4e:dd:59:0a:21:f8:3d:e3:
        c0:64:0f:69:1e:cd:8b:14:d4:92:ef:ed:3d:15:73:46:80:b8:
        63:ab:32:bf:62:37:3a:45:65:5f:2b:e0:b0:0f:9c:de:33:84:
        6a:de:8c:46:8f:b0:49:a6:32:ea:27:b4:65:dd:f0:39:f8:a0:
        c6:37:65:6d:62:16:c4:9e:6e:08:87:63:1f:f2:d9:20:5b:c5:
        f4:d4:1c:90:5d:a3:8a:39:42:f9:59:97:89:eb:21:8d:31:7b:
        6b:32:4b:82:99:b3:a2:a7:2c:fc:df:78:81:28:ca:e2:a2:06:
        14:2d:91:3f:8d:39:6b:96:5e:f3:39:6f:3f:2f:1f:c1:a0:7e:
        1c:75:6b:51:0b:e5:e2:31:43:06:9d:34:4c:00:3f:6d:24:4b:
        6d:f3:77:be:8c:7e:55:fb:39:cd:97:3a:e3:27:c6:ef:70:8f:
        ce:39:57:41
-----BEGIN CERTIFICATE-----
MIIDwzCCAqugAwIBAgIBADANBgkqhkiG9w0BAQsFADBYMQswCQYDVQQGEwJKUDEO
MAwGA1UECAwFQ2hpYmExEzARBgNVBAcMCkNoaWJhIENpdHkxDzANBgNVBAoMBk9S
RSBDQTETMBEGA1UEAwwKb3JlLmNhLmNvbTAeFw0yNDEyMjEwNzE1NDlaFw0yNzAz
MjYwNzE1NDlaMEMxCzAJBgNVBAYTAkpQMQ4wDAYDVQQIDAVDaGliYTEPMA0GA1UE
CgwGT1JFIENBMRMwEQYDVQQDDApteXNlcnYuY29tMIIBIjANBgkqhkiG9w0BAQEF
AAOCAQ8AMIIBCgKCAQEArtk6f5RFH4NjUlmgMR/NHoLHqaA+vDsAsZyD78TsdCg5
LkgQ4TiYRNiV3KLhkXgalaXccdNtShIUdgWeFarMC4BdWAwuEzFEpp1TvwEXNFbr
UTPw0oSUNGfPKW1EfY4LsKnoIBOERuHxluLURyKa7z1DyA0arFZNOi/hwDpfetbp
xn8IYSb18nifC8dQnaBXs2+kDHHLfAICo7Hn3sh/HHyOHgd2/AZreaqG78Vz2ZUa
ShUsOSWFbLgC49LRw11QLZ5OF7PwHQIAcDCPhYtMrRPJSWqUBl6AfHThuwZD9ME5
B/YPhVZ/Xp+H1cVYX8/lgJkcg+ZycFsKWlJqXS7UqQIDAQABo4GsMIGpMAkGA1Ud
EwQCMAAwHQYDVR0OBBYEFMTks0y6uGlivCxe4J62euROlm2oMH0GA1UdIwR2MHSh
XKRaMFgxCzAJBgNVBAYTAkpQMQ4wDAYDVQQIDAVDaGliYTETMBEGA1UEBwwKQ2hp
YmEgQ2l0eTEPMA0GA1UECgwGT1JFIENBMRMwEQYDVQQDDApvcmUuY2EuY29tghQn
gah2OfFyVP0iTwSiGI2ES1KrLTANBgkqhkiG9w0BAQsFAAOCAQEAd75CCU35KLyi
4Cdiv6HnffnXTzJ4Y/ilW8O0ROPjNbmluzFIZzfvYlIxZJELuFiIVHuxStUozxen
4LAnmNKUefpexo820EQzfnADcbSfR057x07dWQoh+D3jwGQPaR7NixTUku/tPRVz
RoC4Y6syv2I3OkVlXyvgsA+c3jOEat6MRo+wSaYy6ie0Zd3wOfigxjdlbWIWxJ5u
CIdjH/LZIFvF9NQckF2jijlC+VmXieshjTF7azJLgpmzoqcs/N94gSjK4qIGFC2R
P405a5Ze8zlvPy8fwaB+HHVrUQvl4jFDBp00TAA/bSRLbfN3vox+Vfs5zZc64yfG
73CPzjlXQQ==
-----END CERTIFICATE-----
